target datalayout = "e-m:e-p270:32:32-p271:32:32-p272:64:64-i64:64-i128:128-f80:128-n8:16:32:64-S128"
target triple = "x86_64-pc-linux-gnu"

%struct.ForEachState = type { ptr, i32 }
%union.ListCell = type { ptr }
%struct.List = type { i32, i32, i32, ptr, [0 x %union.ListCell] }
%struct.RangeTblRef = type { i32, i32 }
%struct.FromExpr = type { i32, ptr, ptr }
%struct.Node = type { i32 }
%struct.JoinExpr = type { i32, i32, i8, ptr, ptr, ptr, ptr, ptr, ptr, i32 }
%struct.reduce_outer_joins_pass1_state = type { ptr, i8, ptr }

@.str.2 = private unnamed_addr constant [15 x i8] c"prepjointree.c\00", align 1
@.str.5 = private unnamed_addr constant [27 x i8] c"unrecognized node type: %d\00", align 1
@__func__.reduce_outer_joins_pass1 = private unnamed_addr constant [25 x i8] c"reduce_outer_joins_pass1\00", align 1

; Function Attrs: nounwind uwtable
define internal ptr @reduce_outer_joins_pass1(ptr noundef %0) #0 {
  %2 = alloca ptr, align 8
  %3 = alloca ptr, align 8
  %4 = alloca ptr, align 8
  %5 = alloca i32, align 4
  %6 = alloca i32, align 4
  %7 = alloca ptr, align 8
  %8 = alloca ptr, align 8
  %9 = alloca %struct.ForEachState, align 8
  %10 = alloca ptr, align 8
  %11 = alloca ptr, align 8
  %12 = alloca ptr, align 8
  store ptr %0, ptr %3, align 8
  call void @llvm.lifetime.start.p0(i64 8, ptr %4) #8
  %13 = call ptr @palloc(i64 noundef 24)
  store ptr %13, ptr %4, align 8
  %14 = load ptr, ptr %4, align 8
  %15 = getelementptr inbounds nuw %struct.reduce_outer_joins_pass1_state, ptr %14, i32 0, i32 0
  store ptr null, ptr %15, align 8
  %16 = load ptr, ptr %4, align 8
  %17 = getelementptr inbounds nuw %struct.reduce_outer_joins_pass1_state, ptr %16, i32 0, i32 1
  store i8 0, ptr %17, align 8
  %18 = load ptr, ptr %4, align 8
  %19 = getelementptr inbounds nuw %struct.reduce_outer_joins_pass1_state, ptr %18, i32 0, i32 2
  store ptr null, ptr %19, align 8
  %20 = load ptr, ptr %3, align 8
  %21 = icmp eq ptr %20, null
  br i1 %21, label %22, label %24

22:                                               ; preds = %1
  %23 = load ptr, ptr %4, align 8
  store ptr %23, ptr %2, align 8
  store i32 1, ptr %5, align 4
  br label %215

24:                                               ; preds = %1
  %25 = load ptr, ptr %3, align 8
  %26 = getelementptr inbounds nuw %struct.Node, ptr %25, i32 0, i32 0
  %27 = load i32, ptr %26, align 4
  %28 = icmp eq i32 %27, 63
  br i1 %28, label %29, label %37

29:                                               ; preds = %24
  call void @llvm.lifetime.start.p0(i64 4, ptr %6) #8
  %30 = load ptr, ptr %3, align 8
  %31 = getelementptr inbounds nuw %struct.RangeTblRef, ptr %30, i32 0, i32 1
  %32 = load i32, ptr %31, align 4
  store i32 %32, ptr %6, align 4
  %33 = load i32, ptr %6, align 4
  %34 = call ptr @bms_make_singleton(i32 noundef %33)
  %35 = load ptr, ptr %4, align 8
  %36 = getelementptr inbounds nuw %struct.reduce_outer_joins_pass1_state, ptr %35, i32 0, i32 0
  store ptr %34, ptr %36, align 8
  call void @llvm.lifetime.end.p0(i64 4, ptr %6) #8
  br label %213

37:                                               ; preds = %24
  %38 = load ptr, ptr %3, align 8
  %39 = getelementptr inbounds nuw %struct.Node, ptr %38, i32 0, i32 0
  %40 = load i32, ptr %39, align 4
  %41 = icmp eq i32 %40, 65
  br i1 %41, label %42, label %114

42:                                               ; preds = %37
  call void @llvm.lifetime.start.p0(i64 8, ptr %7) #8
  %43 = load ptr, ptr %3, align 8
  store ptr %43, ptr %7, align 8
  call void @llvm.lifetime.start.p0(i64 8, ptr %8) #8
  call void @llvm.lifetime.start.p0(i64 16, ptr %9) #8
  %44 = getelementptr inbounds nuw %struct.ForEachState, ptr %9, i32 0, i32 0
  %45 = load ptr, ptr %7, align 8
  %46 = getelementptr inbounds nuw %struct.FromExpr, ptr %45, i32 0, i32 1
  %47 = load ptr, ptr %46, align 8
  store ptr %47, ptr %44, align 8
  %48 = getelementptr inbounds nuw %struct.ForEachState, ptr %9, i32 0, i32 1
  store i32 0, ptr %48, align 8
  %49 = getelementptr i8, ptr %9, i64 12
  call void @llvm.memset.p0.i64(ptr align 4 %49, i8 0, i64 4, i1 false)
  br label %50

50:                                               ; preds = %109, %42
  %51 = getelementptr inbounds nuw %struct.ForEachState, ptr %9, i32 0, i32 0
  %52 = load ptr, ptr %51, align 8
  %53 = icmp ne ptr %52, null
  br i1 %53, label %54, label %71

54:                                               ; preds = %50
  %55 = getelementptr inbounds nuw %struct.ForEachState, ptr %9, i32 0, i32 1
  %56 = load i32, ptr %55, align 8
  %57 = getelementptr inbounds nuw %struct.ForEachState, ptr %9, i32 0, i32 0
  %58 = load ptr, ptr %57, align 8
  %59 = getelementptr inbounds nuw %struct.List, ptr %58, i32 0, i32 1
  %60 = load i32, ptr %59, align 4
  %61 = icmp slt i32 %56, %60
  br i1 %61, label %62, label %71

62:                                               ; preds = %54
  %63 = getelementptr inbounds nuw %struct.ForEachState, ptr %9, i32 0, i32 0
  %64 = load ptr, ptr %63, align 8
  %65 = getelementptr inbounds nuw %struct.List, ptr %64, i32 0, i32 3
  %66 = load ptr, ptr %65, align 8
  %67 = getelementptr inbounds nuw %struct.ForEachState, ptr %9, i32 0, i32 1
  %68 = load i32, ptr %67, align 8
  %69 = sext i32 %68 to i64
  %70 = getelementptr inbounds %union.ListCell, ptr %66, i64 %69
  store ptr %70, ptr %8, align 8
  br label %72

71:                                               ; preds = %54, %50
  store ptr null, ptr %8, align 8
  br label %72

72:                                               ; preds = %71, %62
  %73 = phi i32 [ 1, %62 ], [ 0, %71 ]
  %74 = icmp ne i32 %73, 0
  br i1 %74, label %76, label %75

75:                                               ; preds = %72
  store i32 2, ptr %5, align 4
  call void @llvm.lifetime.end.p0(i64 16, ptr %9) #8
  br label %113

76:                                               ; preds = %72
  call void @llvm.lifetime.start.p0(i64 8, ptr %10) #8
  %77 = load ptr, ptr %8, align 8
  %78 = load ptr, ptr %77, align 8
  %79 = call ptr @reduce_outer_joins_pass1(ptr noundef %78)
  store ptr %79, ptr %10, align 8
  %80 = load ptr, ptr %4, align 8
  %81 = getelementptr inbounds nuw %struct.reduce_outer_joins_pass1_state, ptr %80, i32 0, i32 0
  %82 = load ptr, ptr %81, align 8
  %83 = load ptr, ptr %10, align 8
  %84 = getelementptr inbounds nuw %struct.reduce_outer_joins_pass1_state, ptr %83, i32 0, i32 0
  %85 = load ptr, ptr %84, align 8
  %86 = call ptr @bms_add_members(ptr noundef %82, ptr noundef %85)
  %87 = load ptr, ptr %4, align 8
  %88 = getelementptr inbounds nuw %struct.reduce_outer_joins_pass1_state, ptr %87, i32 0, i32 0
  store ptr %86, ptr %88, align 8
  %89 = load ptr, ptr %10, align 8
  %90 = getelementptr inbounds nuw %struct.reduce_outer_joins_pass1_state, ptr %89, i32 0, i32 1
  %91 = load i8, ptr %90, align 8, !range !7, !noundef !8
  %92 = trunc i8 %91 to i1
  %93 = zext i1 %92 to i32
  %94 = load ptr, ptr %4, align 8
  %95 = getelementptr inbounds nuw %struct.reduce_outer_joins_pass1_state, ptr %94, i32 0, i32 1
  %96 = load i8, ptr %95, align 8, !range !7, !noundef !8
  %97 = trunc i8 %96 to i1
  %98 = zext i1 %97 to i32
  %99 = or i32 %98, %93
  %100 = icmp ne i32 %99, 0
  %101 = zext i1 %100 to i8
  store i8 %101, ptr %95, align 8
  %102 = load ptr, ptr %4, align 8
  %103 = getelementptr inbounds nuw %struct.reduce_outer_joins_pass1_state, ptr %102, i32 0, i32 2
  %104 = load ptr, ptr %103, align 8
  %105 = load ptr, ptr %10, align 8
  %106 = call ptr @lappend(ptr noundef %104, ptr noundef %105)
  %107 = load ptr, ptr %4, align 8
  %108 = getelementptr inbounds nuw %struct.reduce_outer_joins_pass1_state, ptr %107, i32 0, i32 2
  store ptr %106, ptr %108, align 8
  call void @llvm.lifetime.end.p0(i64 8, ptr %10) #8
  br label %109

109:                                              ; preds = %76
  %110 = getelementptr inbounds nuw %struct.ForEachState, ptr %9, i32 0, i32 1
  %111 = load i32, ptr %110, align 8
  %112 = add i32 %111, 1
  store i32 %112, ptr %110, align 8
  br label %50, !llvm.loop !16

113:                                              ; preds = %75
  call void @llvm.lifetime.end.p0(i64 8, ptr %8) #8
  call void @llvm.lifetime.end.p0(i64 8, ptr %7) #8
  br label %212

114:                                              ; preds = %37
  %115 = load ptr, ptr %3, align 8
  %116 = getelementptr inbounds nuw %struct.Node, ptr %115, i32 0, i32 0
  %117 = load i32, ptr %116, align 4
  %118 = icmp eq i32 %117, 64
  br i1 %118, label %119, label %197

119:                                              ; preds = %114
  call void @llvm.lifetime.start.p0(i64 8, ptr %11) #8
  %120 = load ptr, ptr %3, align 8
  store ptr %120, ptr %11, align 8
  call void @llvm.lifetime.start.p0(i64 8, ptr %12) #8
  %121 = load ptr, ptr %11, align 8
  %122 = getelementptr inbounds nuw %struct.JoinExpr, ptr %121, i32 0, i32 1
  %123 = load i32, ptr %122, align 4
  %124 = shl i32 1, %123
  %125 = and i32 %124, 174
  %126 = icmp ne i32 %125, 0
  br i1 %126, label %127, label %130

127:                                              ; preds = %119
  %128 = load ptr, ptr %4, align 8
  %129 = getelementptr inbounds nuw %struct.reduce_outer_joins_pass1_state, ptr %128, i32 0, i32 1
  store i8 1, ptr %129, align 8
  br label %130

130:                                              ; preds = %127, %119
  %131 = load ptr, ptr %11, align 8
  %132 = getelementptr inbounds nuw %struct.JoinExpr, ptr %131, i32 0, i32 3
  %133 = load ptr, ptr %132, align 8
  %134 = call ptr @reduce_outer_joins_pass1(ptr noundef %133)
  store ptr %134, ptr %12, align 8
  %135 = load ptr, ptr %4, align 8
  %136 = getelementptr inbounds nuw %struct.reduce_outer_joins_pass1_state, ptr %135, i32 0, i32 0
  %137 = load ptr, ptr %136, align 8
  %138 = load ptr, ptr %12, align 8
  %139 = getelementptr inbounds nuw %struct.reduce_outer_joins_pass1_state, ptr %138, i32 0, i32 0
  %140 = load ptr, ptr %139, align 8
  %141 = call ptr @bms_add_members(ptr noundef %137, ptr noundef %140)
  %142 = load ptr, ptr %4, align 8
  %143 = getelementptr inbounds nuw %struct.reduce_outer_joins_pass1_state, ptr %142, i32 0, i32 0
  store ptr %141, ptr %143, align 8
  %144 = load ptr, ptr %12, align 8
  %145 = getelementptr inbounds nuw %struct.reduce_outer_joins_pass1_state, ptr %144, i32 0, i32 1
  %146 = load i8, ptr %145, align 8, !range !7, !noundef !8
  %147 = trunc i8 %146 to i1
  %148 = zext i1 %147 to i32
  %149 = load ptr, ptr %4, align 8
  %150 = getelementptr inbounds nuw %struct.reduce_outer_joins_pass1_state, ptr %149, i32 0, i32 1
  %151 = load i8, ptr %150, align 8, !range !7, !noundef !8
  %152 = trunc i8 %151 to i1
  %153 = zext i1 %152 to i32
  %154 = or i32 %153, %148
  %155 = icmp ne i32 %154, 0
  %156 = zext i1 %155 to i8
  store i8 %156, ptr %150, align 8
  %157 = load ptr, ptr %4, align 8
  %158 = getelementptr inbounds nuw %struct.reduce_outer_joins_pass1_state, ptr %157, i32 0, i32 2
  %159 = load ptr, ptr %158, align 8
  %160 = load ptr, ptr %12, align 8
  %161 = call ptr @lappend(ptr noundef %159, ptr noundef %160)
  %162 = load ptr, ptr %4, align 8
  %163 = getelementptr inbounds nuw %struct.reduce_outer_joins_pass1_state, ptr %162, i32 0, i32 2
  store ptr %161, ptr %163, align 8
  %164 = load ptr, ptr %11, align 8
  %165 = getelementptr inbounds nuw %struct.JoinExpr, ptr %164, i32 0, i32 4
  %166 = load ptr, ptr %165, align 8
  %167 = call ptr @reduce_outer_joins_pass1(ptr noundef %166)
  store ptr %167, ptr %12, align 8
  %168 = load ptr, ptr %4, align 8
  %169 = getelementptr inbounds nuw %struct.reduce_outer_joins_pass1_state, ptr %168, i32 0, i32 0
  %170 = load ptr, ptr %169, align 8
  %171 = load ptr, ptr %12, align 8
  %172 = getelementptr inbounds nuw %struct.reduce_outer_joins_pass1_state, ptr %171, i32 0, i32 0
  %173 = load ptr, ptr %172, align 8
  %174 = call ptr @bms_add_members(ptr noundef %170, ptr noundef %173)
  %175 = load ptr, ptr %4, align 8
  %176 = getelementptr inbounds nuw %struct.reduce_outer_joins_pass1_state, ptr %175, i32 0, i32 0
  store ptr %174, ptr %176, align 8
  %177 = load ptr, ptr %12, align 8
  %178 = getelementptr inbounds nuw %struct.reduce_outer_joins_pass1_state, ptr %177, i32 0, i32 1
  %179 = load i8, ptr %178, align 8, !range !7, !noundef !8
  %180 = trunc i8 %179 to i1
  %181 = zext i1 %180 to i32
  %182 = load ptr, ptr %4, align 8
  %183 = getelementptr inbounds nuw %struct.reduce_outer_joins_pass1_state, ptr %182, i32 0, i32 1
  %184 = load i8, ptr %183, align 8, !range !7, !noundef !8
  %185 = trunc i8 %184 to i1
  %186 = zext i1 %185 to i32
  %187 = or i32 %186, %181
  %188 = icmp ne i32 %187, 0
  %189 = zext i1 %188 to i8
  store i8 %189, ptr %183, align 8
  %190 = load ptr, ptr %4, align 8
  %191 = getelementptr inbounds nuw %struct.reduce_outer_joins_pass1_state, ptr %190, i32 0, i32 2
  %192 = load ptr, ptr %191, align 8
  %193 = load ptr, ptr %12, align 8
  %194 = call ptr @lappend(ptr noundef %192, ptr noundef %193)
  %195 = load ptr, ptr %4, align 8
  %196 = getelementptr inbounds nuw %struct.reduce_outer_joins_pass1_state, ptr %195, i32 0, i32 2
  store ptr %194, ptr %196, align 8
  call void @llvm.lifetime.end.p0(i64 8, ptr %12) #8
  call void @llvm.lifetime.end.p0(i64 8, ptr %11) #8
  br label %211

197:                                              ; preds = %114
  br label %198

198:                                              ; preds = %197
  br i1 true, label %199, label %201

199:                                              ; preds = %198
  %200 = call zeroext i1 @errstart_cold(i32 noundef 21, ptr noundef null) #9
  br i1 %200, label %203, label %208

201:                                              ; preds = %198
  %202 = call zeroext i1 @errstart(i32 noundef 21, ptr noundef null)
  br i1 %202, label %203, label %208

203:                                              ; preds = %201, %199
  %204 = load ptr, ptr %3, align 8
  %205 = getelementptr inbounds nuw %struct.Node, ptr %204, i32 0, i32 0
  %206 = load i32, ptr %205, align 4
  %207 = call i32 (ptr, ...) @errmsg_internal(ptr noundef @.str.5, i32 noundef %206)
  call void @errfinish(ptr noundef @.str.2, i32 noundef 3119, ptr noundef @__func__.reduce_outer_joins_pass1)
  br label %208

208:                                              ; preds = %203, %201, %199
  unreachable

209:                                              ; No predecessors!
  br label %210

210:                                              ; preds = %209
  br label %211

211:                                              ; preds = %210, %130
  br label %212

212:                                              ; preds = %211, %113
  br label %213

213:                                              ; preds = %212, %29
  %214 = load ptr, ptr %4, align 8
  store ptr %214, ptr %2, align 8
  store i32 1, ptr %5, align 4
  br label %215

215:                                              ; preds = %213, %22
  call void @llvm.lifetime.end.p0(i64 8, ptr %4) #8
  %216 = load ptr, ptr %2, align 8
  ret ptr %216
}