; Function Attrs: nounwind uwtable
define internal fastcc noundef ptr @reduce_outer_joins_pass1(ptr noundef readonly captures(address_is_null) %0) unnamed_addr #0 {
  %2 = tail call ptr @palloc(i64 noundef 24) #7
  store ptr null, ptr %2, align 8
  %3 = getelementptr inbounds nuw i8, ptr %2, i64 8
  store i8 0, ptr %3, align 8
  %4 = getelementptr inbounds nuw i8, ptr %2, i64 16
  store ptr null, ptr %4, align 8
  %5 = icmp eq ptr %0, null
  br i1 %5, label %common.ret61, label %6

6:                                                ; preds = %1
  %7 = load i32, ptr %0, align 4
  switch i32 %7, label %66 [
    i32 63, label %8
    i32 65, label %12
    i32 64, label %35
  ]

8:                                                ; preds = %6
  %9 = getelementptr inbounds nuw i8, ptr %0, i64 4
  %10 = load i32, ptr %9, align 4
  %11 = tail call ptr @bms_make_singleton(i32 noundef %10) #7
  store ptr %11, ptr %2, align 8
  br label %common.ret61

12:                                               ; preds = %6
  %13 = getelementptr inbounds nuw i8, ptr %0, i64 8
  %14 = load ptr, ptr %13, align 8
  %15 = getelementptr inbounds nuw i8, ptr %14, i64 4
  %.not52 = icmp eq ptr %14, null
  br i1 %.not52, label %common.ret61, label %.lr.ph

.lr.ph:                                           ; preds = %12
  %16 = getelementptr inbounds nuw i8, ptr %14, i64 16
  %17 = load i32, ptr %15, align 4
  %18 = icmp sgt i32 %17, 0
  br i1 %18, label %.lr.ph59, label %common.ret61

.lr.ph59:                                         ; preds = %.lr.ph, %.lr.ph59
  %indvars.iv = phi i64 [ %indvars.iv.next, %.lr.ph59 ], [ 0, %.lr.ph ]
  %19 = load ptr, ptr %16, align 8
  %20 = getelementptr inbounds nuw %union.ListCell, ptr %19, i64 %indvars.iv
  %21 = load ptr, ptr %20, align 8
  %22 = tail call fastcc ptr @reduce_outer_joins_pass1(ptr noundef %21)
  %23 = load ptr, ptr %2, align 8
  %24 = load ptr, ptr %22, align 8
  %25 = tail call ptr @bms_add_members(ptr noundef %23, ptr noundef %24) #7
  store ptr %25, ptr %2, align 8
  %26 = getelementptr inbounds nuw i8, ptr %22, i64 8
  %27 = load i8, ptr %26, align 8, !range !4, !noundef !5
  %28 = load i8, ptr %3, align 8, !range !4, !noundef !5
  %29 = or i8 %28, %27
  store i8 %29, ptr %3, align 8
  %30 = load ptr, ptr %4, align 8
  %31 = tail call ptr @lappend(ptr noundef %30, ptr noundef nonnull %22) #7
  store ptr %31, ptr %4, align 8
  %indvars.iv.next = add nuw nsw i64 %indvars.iv, 1
  %32 = load i32, ptr %15, align 4
  %33 = sext i32 %32 to i64
  %34 = icmp slt i64 %indvars.iv.next, %33
  br i1 %34, label %.lr.ph59, label %common.ret61

35:                                               ; preds = %6
  %36 = getelementptr inbounds nuw i8, ptr %0, i64 4
  %37 = load i32, ptr %36, align 4
  %38 = shl nuw i32 1, %37
  %39 = and i32 %38, 174
  %.not = icmp eq i32 %39, 0
  br i1 %.not, label %41, label %40

40:                                               ; preds = %35
  store i8 1, ptr %3, align 8
  br label %41

common.ret61:                                     ; preds = %8, %1, %.lr.ph, %12, %.lr.ph59, %41
  %common.ret61.op = phi ptr [ %2, %41 ], [ %2, %.lr.ph59 ], [ %2, %12 ], [ %2, %.lr.ph ], [ %2, %1 ], [ %2, %8 ]
  ret ptr %common.ret61.op

41:                                               ; preds = %40, %35
  %42 = getelementptr inbounds nuw i8, ptr %0, i64 16
  %43 = load ptr, ptr %42, align 8
  %44 = tail call fastcc ptr @reduce_outer_joins_pass1(ptr noundef %43)
  %45 = load ptr, ptr %2, align 8
  %46 = load ptr, ptr %44, align 8
  %47 = tail call ptr @bms_add_members(ptr noundef %45, ptr noundef %46) #7
  store ptr %47, ptr %2, align 8
  %48 = getelementptr inbounds nuw i8, ptr %44, i64 8
  %49 = load i8, ptr %48, align 8, !range !4, !noundef !5
  %50 = load i8, ptr %3, align 8, !range !4, !noundef !5
  %51 = or i8 %50, %49
  store i8 %51, ptr %3, align 8
  %52 = load ptr, ptr %4, align 8
  %53 = tail call ptr @lappend(ptr noundef %52, ptr noundef nonnull %44) #7
  store ptr %53, ptr %4, align 8
  %54 = getelementptr inbounds nuw i8, ptr %0, i64 24
  %55 = load ptr, ptr %54, align 8
  %56 = tail call fastcc ptr @reduce_outer_joins_pass1(ptr noundef %55)
  %57 = load ptr, ptr %2, align 8
  %58 = load ptr, ptr %56, align 8
  %59 = tail call ptr @bms_add_members(ptr noundef %57, ptr noundef %58) #7
  store ptr %59, ptr %2, align 8
  %60 = getelementptr inbounds nuw i8, ptr %56, i64 8
  %61 = load i8, ptr %60, align 8, !range !4, !noundef !5
  %62 = load i8, ptr %3, align 8, !range !4, !noundef !5
  %63 = or i8 %62, %61
  store i8 %63, ptr %3, align 8
  %64 = load ptr, ptr %4, align 8
  %65 = tail call ptr @lappend(ptr noundef %64, ptr noundef nonnull %56) #7
  store ptr %65, ptr %4, align 8
  br label %common.ret61

66:                                               ; preds = %6
  %67 = tail call zeroext i1 @errstart_cold(i32 noundef 21, ptr noundef null) #8
  tail call void @llvm.assume(i1 %67)
  %68 = load i32, ptr %0, align 4
  %69 = tail call i32 (ptr, ...) @errmsg_internal(ptr noundef nonnull @.str.5, i32 noundef %68) #7
  tail call void @errfinish(ptr noundef nonnull @.str.2, i32 noundef 3119, ptr noundef nonnull @__func__.reduce_outer_joins_pass1) #7
  unreachable
}